; Function Attrs: mustprogress uwtable
define void @_ZNK7Imf_3_218DeepTiledInputFile18dataWindowForLevelEii(ptr noalias sret(%"class.Imath_3_2::Box") align 4 %agg.result, ptr nocapture noundef nonnull readonly align 8 dereferenceable(16) %this, i32 noundef %lx, i32 noundef %ly) local_unnamed_addr #3 align 2 personality ptr @__gxx_personality_v0 {
entry:
  %_iex_replace_s = alloca %"class.std::__cxx11::basic_stringstream", align 8
  %_data = getelementptr inbounds i8, ptr %this, i64 8
  %0 = load ptr, ptr %_data, align 8
  %tileDesc = getelementptr inbounds i8, ptr %0, i64 96
  %minX = getelementptr inbounds i8, ptr %0, i64 228
  %1 = load i32, ptr %minX, align 4
  %maxX = getelementptr inbounds i8, ptr %0, i64 232
  %2 = load i32, ptr %maxX, align 8
  %minY = getelementptr inbounds i8, ptr %0, i64 236
  %3 = load i32, ptr %minY, align 4
  %maxY = getelementptr inbounds i8, ptr %0, i64 240
  %4 = load i32, ptr %maxY, align 8
  invoke void @_ZN7Imf_3_218dataWindowForLevelERKNS_15TileDescriptionEiiiiii(ptr sret(%"class.Imath_3_2::Box") align 4 %agg.result, ptr noundef nonnull align 4 dereferenceable(16) %tileDesc, i32 noundef %1, i32 noundef %2, i32 noundef %3, i32 noundef %4, i32 noundef %lx, i32 noundef %ly)
          to label %invoke.cont unwind label %lpad

invoke.cont:                                      ; preds = %entry
  ret void

lpad:                                             ; preds = %entry
  %5 = landingpad { ptr, i32 }
          catch ptr @_ZTIN7Iex_3_27BaseExcE
  %6 = extractvalue { ptr, i32 } %5, 1
  %7 = tail call i32 @llvm.eh.typeid.for(ptr nonnull @_ZTIN7Iex_3_27BaseExcE) #20
  %matches = icmp eq i32 %6, %7
  br i1 %matches, label %catch, label %eh.resume

catch:                                            ; preds = %lpad
  %8 = extractvalue { ptr, i32 } %5, 0
  %9 = tail call ptr @__cxa_begin_catch(ptr %8) #20
  invoke void @_ZNSt7__cxx1118basic_stringstreamIcSt11char_traitsIcESaIcEEC1Ev(ptr noundef nonnull align 8 dereferenceable(128) %_iex_replace_s)
          to label %invoke.cont7 unwind label %lpad6

invoke.cont7:                                     ; preds = %catch
  %add.ptr = getelementptr inbounds i8, ptr %_iex_replace_s, i64 16
  %call = invoke noundef nonnull align 8 dereferenceable(8) ptr @_ZStlsISt11char_traitsIcEERSt13basic_ostreamIcT_ES5_PKc(ptr noundef nonnull align 8 dereferenceable(8) %add.ptr, ptr noundef nonnull @.str.46)
          to label %invoke.cont9 unwind label %lpad8

invoke.cont9:                                     ; preds = %invoke.cont7
  %10 = load ptr, ptr %_data, align 8
  %_streamData.i = getelementptr inbounds i8, ptr %10, i64 472
  %11 = load ptr, ptr %_streamData.i, align 8
  %is.i = getelementptr inbounds i8, ptr %11, i64 40
  %12 = load ptr, ptr %is.i, align 8
  %call.i4 = invoke noundef ptr @_ZNK7Imf_3_27IStream8fileNameEv(ptr noundef nonnull align 8 dereferenceable(40) %12)
          to label %invoke.cont10 unwind label %lpad8

invoke.cont10:                                    ; preds = %invoke.cont9
  %call13 = invoke noundef nonnull align 8 dereferenceable(8) ptr @_ZStlsISt11char_traitsIcEERSt13basic_ostreamIcT_ES5_PKc(ptr noundef nonnull align 8 dereferenceable(8) %call, ptr noundef %call.i4)
          to label %invoke.cont12 unwind label %lpad8

invoke.cont12:                                    ; preds = %invoke.cont10
  %call15 = invoke noundef nonnull align 8 dereferenceable(8) ptr @_ZStlsISt11char_traitsIcEERSt13basic_ostreamIcT_ES5_PKc(ptr noundef nonnull align 8 dereferenceable(8) %call13, ptr noundef nonnull @.str.9)
          to label %invoke.cont14 unwind label %lpad8

invoke.cont14:                                    ; preds = %invoke.cont12
  %vtable = load ptr, ptr %9, align 8
  %vfn = getelementptr inbounds i8, ptr %vtable, i64 16
  %13 = load ptr, ptr %vfn, align 8
  %call16 = call noundef ptr %13(ptr noundef nonnull align 8 dereferenceable(72) %9) #20
  %call18 = invoke noundef nonnull align 8 dereferenceable(8) ptr @_ZStlsISt11char_traitsIcEERSt13basic_ostreamIcT_ES5_PKc(ptr noundef nonnull align 8 dereferenceable(8) %call15, ptr noundef %call16)
          to label %invoke.cont17 unwind label %lpad8

invoke.cont17:                                    ; preds = %invoke.cont14
  %call20 = invoke noundef nonnull align 8 dereferenceable(72) ptr @_ZN7Iex_3_27BaseExc6assignERNSt7__cxx1118basic_stringstreamIcSt11char_traitsIcESaIcEEE(ptr noundef nonnull align 8 dereferenceable(72) %9, ptr noundef nonnull align 8 dereferenceable(128) %_iex_replace_s)
          to label %invoke.cont19 unwind label %lpad8

invoke.cont19:                                    ; preds = %invoke.cont17
  call void @_ZNSt7__cxx1118basic_stringstreamIcSt11char_traitsIcESaIcEED1Ev(ptr noundef nonnull align 8 dereferenceable(128) %_iex_replace_s) #20
  invoke void @__cxa_rethrow() #24
          to label %unreachable unwind label %lpad6

lpad6:                                            ; preds = %invoke.cont19, %catch
  %14 = landingpad { ptr, i32 }
          cleanup
  br label %ehcleanup

lpad8:                                            ; preds = %invoke.cont9, %invoke.cont17, %invoke.cont14, %invoke.cont12, %invoke.cont10, %invoke.cont7
  %15 = landingpad { ptr, i32 }
          cleanup
  call void @_ZNSt7__cxx1118basic_stringstreamIcSt11char_traitsIcESaIcEED1Ev(ptr noundef nonnull align 8 dereferenceable(128) %_iex_replace_s) #20
  br label %ehcleanup

ehcleanup:                                        ; preds = %lpad8, %lpad6
  %.pn = phi { ptr, i32 } [ %14, %lpad6 ], [ %15, %lpad8 ]
  invoke void @__cxa_end_catch()
          to label %eh.resume unwind label %terminate.lpad

eh.resume:                                        ; preds = %ehcleanup, %lpad
  %lpad.val24.merged = phi { ptr, i32 } [ %.pn, %ehcleanup ], [ %5, %lpad ]
  resume { ptr, i32 } %lpad.val24.merged

terminate.lpad:                                   ; preds = %ehcleanup
  %16 = landingpad { ptr, i32 }
          catch ptr null
  %17 = extractvalue { ptr, i32 } %16, 0
  call void @__clang_call_terminate(ptr %17) #23
  unreachable

unreachable:                                      ; preds = %invoke.cont19
  unreachable
}